target datalayout = "e-m:e-p270:32:32-p271:32:32-p272:64:64-i64:64-i128:128-f80:128-n8:16:32:64-S128"
target triple = "x86_64-unknown-linux-gnu"

%"class.icu_75::UMutex" = type { [40 x i8], %"struct.std::atomic", ptr }
%"struct.std::atomic" = type { %"struct.std::__atomic_base" }
%"struct.std::__atomic_base" = type { ptr }
%"class.icu_75::SimpleTimeZone" = type { %"class.icu_75::BasicTimeZone", i8, i8, i8, i32, i32, i32, i8, i8, i8, i32, i32, i32, i8, i32, i32, i32, i8, ptr, ptr, ptr, ptr }
%"class.icu_75::BasicTimeZone" = type { %"class.icu_75::TimeZone" }
%"class.icu_75::TimeZone" = type { %"class.icu_75::UObject", %"class.icu_75::UnicodeString" }
%"class.icu_75::UObject" = type { ptr }
%"class.icu_75::UnicodeString" = type { %"class.icu_75::Replaceable", %"union.icu_75::UnicodeString::StackBufferOrFields" }
%"class.icu_75::Replaceable" = type { %"class.icu_75::UObject" }
%"union.icu_75::UnicodeString::StackBufferOrFields" = type { %struct.anon.0, [32 x i8] }
%struct.anon.0 = type { i16, i32, i32, ptr }

@_ZZNK6icu_7514SimpleTimeZone20checkTransitionRulesER10UErrorCodeE5gLock = internal global %"class.icu_75::UMutex" zeroinitializer, align 8

; Function Attrs: mustprogress uwtable
define void @_ZNK6icu_7514SimpleTimeZone20checkTransitionRulesER10UErrorCode(ptr noundef nonnull align 8 dereferenceable(160) %this, ptr noundef nonnull align 4 dereferenceable(4) %status) #1 align 2 {
entry:
  %this.addr = alloca ptr, align 8
  %status.addr = alloca ptr, align 8
  %ncThis = alloca ptr, align 8
  store ptr %this, ptr %this.addr, align 8
  store ptr %status, ptr %status.addr, align 8
  %this1 = load ptr, ptr %this.addr, align 8
  %0 = load ptr, ptr %status.addr, align 8
  %1 = load i32, ptr %0, align 4
  %call = call noundef signext i8 @_ZL9U_FAILURE10UErrorCode(i32 noundef %1)
  %tobool = icmp ne i8 %call, 0
  br i1 %tobool, label %if.then, label %if.end

if.then:                                          ; preds = %entry
  br label %return

if.end:                                           ; preds = %entry
  call void @umtx_lock_75(ptr noundef @_ZZNK6icu_7514SimpleTimeZone20checkTransitionRulesER10UErrorCodeE5gLock)
  %transitionRulesInitialized = getelementptr inbounds %"class.icu_75::SimpleTimeZone", ptr %this1, i32 0, i32 17
  %2 = load i8, ptr %transitionRulesInitialized, align 8
  %tobool2 = icmp ne i8 %2, 0
  br i1 %tobool2, label %if.end4, label %if.then3

if.then3:                                         ; preds = %if.end
  store ptr %this1, ptr %ncThis, align 8
  %3 = load ptr, ptr %ncThis, align 8
  %4 = load ptr, ptr %status.addr, align 8
  call void @_ZN6icu_7514SimpleTimeZone19initTransitionRulesER10UErrorCode(ptr noundef nonnull align 8 dereferenceable(160) %3, ptr noundef nonnull align 4 dereferenceable(4) %4)
  br label %if.end4

if.end4:                                          ; preds = %if.then3, %if.end
  call void @umtx_unlock_75(ptr noundef @_ZZNK6icu_7514SimpleTimeZone20checkTransitionRulesER10UErrorCodeE5gLock)
  br label %return

return:                                           ; preds = %if.end4, %if.then
  ret void
}

; Function Attrs: mustprogress nounwind uwtable
define internal noundef signext i8 @_ZL9U_FAILURE10UErrorCode(i32 noundef %code) #0 {
entry:
  %code.addr = alloca i32, align 4
  store i32 %code, ptr %code.addr, align 4
  %0 = load i32, ptr %code.addr, align 4
  %cmp = icmp sgt i32 %0, 0
  %conv = zext i1 %cmp to i8
  ret i8 %conv
}

; Function Attrs: mustprogress uwtable
define void @_ZNK6icu_7514SimpleTimeZone16getTimeZoneRulesERPKNS_19InitialTimeZoneRuleEPPKNS_12TimeZoneRuleERiR10UErrorCode(ptr noundef nonnull align 8 dereferenceable(160) %this, ptr noundef nonnull align 8 dereferenceable(8) %initial, ptr noundef %trsrules, ptr noundef nonnull align 4 dereferenceable(4) %trscount, ptr noundef nonnull align 4 dereferenceable(4) %status) unnamed_addr #1 align 2 {
entry:
  %this.addr = alloca ptr, align 8
  %initial.addr = alloca ptr, align 8
  %trsrules.addr = alloca ptr, align 8
  %trscount.addr = alloca ptr, align 8
  %status.addr = alloca ptr, align 8
  %cnt = alloca i32, align 4
  store ptr %this, ptr %this.addr, align 8
  store ptr %initial, ptr %initial.addr, align 8
  store ptr %trsrules, ptr %trsrules.addr, align 8
  store ptr %trscount, ptr %trscount.addr, align 8
  store ptr %status, ptr %status.addr, align 8
  %this1 = load ptr, ptr %this.addr, align 8
  %0 = load ptr, ptr %status.addr, align 8
  %1 = load i32, ptr %0, align 4
  %call = call noundef signext i8 @_ZL9U_FAILURE10UErrorCode(i32 noundef %1)
  %tobool = icmp ne i8 %call, 0
  br i1 %tobool, label %if.then, label %if.end

if.then:                                          ; preds = %entry
  br label %return

if.end:                                           ; preds = %entry
  %2 = load ptr, ptr %status.addr, align 8
  call void @_ZNK6icu_7514SimpleTimeZone20checkTransitionRulesER10UErrorCode(ptr noundef nonnull align 8 dereferenceable(160) %this1, ptr noundef nonnull align 4 dereferenceable(4) %2)
  %3 = load ptr, ptr %status.addr, align 8
  %4 = load i32, ptr %3, align 4
  %call2 = call noundef signext i8 @_ZL9U_FAILURE10UErrorCode(i32 noundef %4)
  %tobool3 = icmp ne i8 %call2, 0
  br i1 %tobool3, label %if.then4, label %if.end5

if.then4:                                         ; preds = %if.end
  br label %return

if.end5:                                          ; preds = %if.end
  %initialRule = getelementptr inbounds %"class.icu_75::SimpleTimeZone", ptr %this1, i32 0, i32 18
  %5 = load ptr, ptr %initialRule, align 8
  %6 = load ptr, ptr %initial.addr, align 8
  store ptr %5, ptr %6, align 8
  store i32 0, ptr %cnt, align 4
  %stdRule = getelementptr inbounds %"class.icu_75::SimpleTimeZone", ptr %this1, i32 0, i32 20
  %7 = load ptr, ptr %stdRule, align 8
  %cmp = icmp ne ptr %7, null
  br i1 %cmp, label %if.then6, label %if.end17

if.then6:                                         ; preds = %if.end5
  %8 = load i32, ptr %cnt, align 4
  %9 = load ptr, ptr %trscount.addr, align 8
  %10 = load i32, ptr %9, align 4
  %cmp7 = icmp slt i32 %8, %10
  br i1 %cmp7, label %if.then8, label %if.end10

if.then8:                                         ; preds = %if.then6
  %stdRule9 = getelementptr inbounds %"class.icu_75::SimpleTimeZone", ptr %this1, i32 0, i32 20
  %11 = load ptr, ptr %stdRule9, align 8
  %12 = load ptr, ptr %trsrules.addr, align 8
  %13 = load i32, ptr %cnt, align 4
  %inc = add nsw i32 %13, 1
  store i32 %inc, ptr %cnt, align 4
  %idxprom = sext i32 %13 to i64
  %arrayidx = getelementptr inbounds ptr, ptr %12, i64 %idxprom
  store ptr %11, ptr %arrayidx, align 8
  br label %if.end10

if.end10:                                         ; preds = %if.then8, %if.then6
  %14 = load i32, ptr %cnt, align 4
  %15 = load ptr, ptr %trscount.addr, align 8
  %16 = load i32, ptr %15, align 4
  %cmp11 = icmp slt i32 %14, %16
  br i1 %cmp11, label %if.then12, label %if.end16

if.then12:                                        ; preds = %if.end10
  %dstRule = getelementptr inbounds %"class.icu_75::SimpleTimeZone", ptr %this1, i32 0, i32 21
  %17 = load ptr, ptr %dstRule, align 8
  %18 = load ptr, ptr %trsrules.addr, align 8
  %19 = load i32, ptr %cnt, align 4
  %inc13 = add nsw i32 %19, 1
  store i32 %inc13, ptr %cnt, align 4
  %idxprom14 = sext i32 %19 to i64
  %arrayidx15 = getelementptr inbounds ptr, ptr %18, i64 %idxprom14
  store ptr %17, ptr %arrayidx15, align 8
  br label %if.end16

if.end16:                                         ; preds = %if.then12, %if.end10
  br label %if.end17

if.end17:                                         ; preds = %if.end16, %if.end5
  %20 = load i32, ptr %cnt, align 4
  %21 = load ptr, ptr %trscount.addr, align 8
  store i32 %20, ptr %21, align 4
  br label %return

return:                                           ; preds = %if.end17, %if.then4, %if.then
  ret void
}