; Function Attrs: mustprogress uwtable
define void @_ZNK6icu_7514SimpleTimeZone16getTimeZoneRulesERPKNS_19InitialTimeZoneRuleEPPKNS_12TimeZoneRuleERiR10UErrorCode(ptr noundef nonnull align 8 dereferenceable(160) %this, ptr nocapture noundef nonnull writeonly align 8 dereferenceable(8) %initial, ptr nocapture noundef writeonly %trsrules, ptr nocapture noundef nonnull align 4 dereferenceable(4) %trscount, ptr nocapture noundef nonnull align 4 dereferenceable(4) %status) unnamed_addr #1 align 2 {
entry:
  %0 = load i32, ptr %status, align 4
  %cmp.i = icmp slt i32 %0, 1
  br i1 %cmp.i, label %if.end.i, label %return

if.end.i:                                         ; preds = %entry
  tail call void @umtx_lock_75(ptr noundef nonnull @_ZZNK6icu_7514SimpleTimeZone20checkTransitionRulesER10UErrorCodeE5gLock)
  %transitionRulesInitialized.i = getelementptr inbounds i8, ptr %this, i64 120
  %1 = load i8, ptr %transitionRulesInitialized.i, align 8
  %tobool2.not.i = icmp eq i8 %1, 0
  br i1 %tobool2.not.i, label %if.then3.i, label %if.end4.i

if.then3.i:                                       ; preds = %if.end.i
  tail call void @_ZN6icu_7514SimpleTimeZone19initTransitionRulesER10UErrorCode(ptr noundef nonnull align 8 dereferenceable(160) %this, ptr noundef nonnull align 4 dereferenceable(4) %status)
  br label %if.end4.i

if.end4.i:                                        ; preds = %if.then3.i, %if.end.i
  tail call void @umtx_unlock_75(ptr noundef nonnull @_ZZNK6icu_7514SimpleTimeZone20checkTransitionRulesER10UErrorCodeE5gLock)
  %2 = load i32, ptr %status, align 4
  %cmp.i10 = icmp slt i32 %2, 1
  br i1 %cmp.i10, label %if.end5, label %return

if.end5:                                          ; preds = %if.end4.i
  %initialRule = getelementptr inbounds i8, ptr %this, i64 128
  %3 = load ptr, ptr %initialRule, align 8
  store ptr %3, ptr %initial, align 8
  %stdRule = getelementptr inbounds i8, ptr %this, i64 144
  %4 = load ptr, ptr %stdRule, align 8
  %cmp.not = icmp eq ptr %4, null
  br i1 %cmp.not, label %if.end17, label %if.then6

if.then6:                                         ; preds = %if.end5
  %5 = load i32, ptr %trscount, align 4
  %cmp7 = icmp sgt i32 %5, 0
  br i1 %cmp7, label %if.then8, label %if.end10

if.then8:                                         ; preds = %if.then6
  store ptr %4, ptr %trsrules, align 8
  %.pre = load i32, ptr %trscount, align 4
  br label %if.end10

if.end10:                                         ; preds = %if.then8, %if.then6
  %6 = phi i32 [ %.pre, %if.then8 ], [ %5, %if.then6 ]
  %cnt.0 = phi i32 [ 1, %if.then8 ], [ 0, %if.then6 ]
  %cmp11 = icmp slt i32 %cnt.0, %6
  br i1 %cmp11, label %if.then12, label %if.end17

if.then12:                                        ; preds = %if.end10
  %dstRule = getelementptr inbounds i8, ptr %this, i64 152
  %7 = load ptr, ptr %dstRule, align 8
  %inc13 = add nuw nsw i32 %cnt.0, 1
  %idxprom14 = zext nneg i32 %cnt.0 to i64
  %arrayidx15 = getelementptr inbounds ptr, ptr %trsrules, i64 %idxprom14
  store ptr %7, ptr %arrayidx15, align 8
  br label %if.end17

if.end17:                                         ; preds = %if.end10, %if.then12, %if.end5
  %cnt.1 = phi i32 [ %inc13, %if.then12 ], [ %cnt.0, %if.end10 ], [ 0, %if.end5 ]
  store i32 %cnt.1, ptr %trscount, align 4
  br label %return

return:                                           ; preds = %if.end4.i, %entry, %if.end17
  ret void
}